; Function Attrs: mustprogress uwtable
define dso_local noundef zeroext i1 @_ZN4Luau5Widen14ignoreChildrenEPKNS_4TypeE(ptr noundef nonnull readonly align 8 captures(none) dereferenceable(480) %0, ptr noundef %1) unnamed_addr #2 align 2 {
  %.not.i.i = icmp eq ptr %1, null
  br i1 %.not.i.i, label %6, label %3

3:                                                ; preds = %2
  %4 = load i32, ptr %1, align 8, !tbaa !84
  %5 = icmp eq i32 %4, 11
  br i1 %5, label %_ZN4Luau3getINS_9ClassTypeEEEPKT_PKNS_4TypeE.exit, label %.thread

6:                                                ; preds = %2
  %7 = getelementptr inbounds nuw i8, ptr %0, i64 144
  %8 = load ptr, ptr %7, align 8, !tbaa !51
  %9 = tail call noundef ptr @_ZNK4Luau6TxnLog7pendingEPKNS_4TypeE(ptr noundef nonnull align 8 dereferenceable(128) %8, ptr noundef null)
  %.not.i = icmp eq ptr %9, null
  br i1 %.not.i, label %_ZN4Luau3getINS_9ClassTypeEEEPKT_PKNS_4TypeE.exit, label %_ZN4Luau6get_ifINS_9UnionTypeEJNS_9Unifiable5BoundIPKNS_4TypeEEENS2_5ErrorIS6_EENS_8FreeTypeENS_11GenericTypeENS_13PrimitiveTypeENS_13SingletonTypeENS_11BlockedTypeENS_20PendingExpansionTypeENS_12FunctionTypeENS_9TableTypeENS_13MetatableTypeENS_9ClassTypeENS_7AnyTypeES1_NS_16IntersectionTypeENS_8LazyTypeENS_11UnknownTypeENS_9NeverTypeENS_12NegationTypeENS_12NoRefineTypeENS_24TypeFunctionInstanceTypeEEEEPKT_PKNS_7VariantIJDpT0_EEE.exit.sink.split.i

.thread:                                          ; preds = %3
  %10 = getelementptr inbounds nuw i8, ptr %0, i64 144
  %11 = load ptr, ptr %10, align 8, !tbaa !51
  %12 = tail call noundef ptr @_ZNK4Luau6TxnLog7pendingEPKNS_4TypeE(ptr noundef nonnull align 8 dereferenceable(128) %11, ptr noundef nonnull %1)
  %.not.i5 = icmp eq ptr %12, null
  %spec.select = select i1 %.not.i5, ptr %1, ptr %12
  br label %_ZN4Luau6get_ifINS_9UnionTypeEJNS_9Unifiable5BoundIPKNS_4TypeEEENS2_5ErrorIS6_EENS_8FreeTypeENS_11GenericTypeENS_13PrimitiveTypeENS_13SingletonTypeENS_11BlockedTypeENS_20PendingExpansionTypeENS_12FunctionTypeENS_9TableTypeENS_13MetatableTypeENS_9ClassTypeENS_7AnyTypeES1_NS_16IntersectionTypeENS_8LazyTypeENS_11UnknownTypeENS_9NeverTypeENS_12NegationTypeENS_12NoRefineTypeENS_24TypeFunctionInstanceTypeEEEEPKT_PKNS_7VariantIJDpT0_EEE.exit.sink.split.i

_ZN4Luau6get_ifINS_9UnionTypeEJNS_9Unifiable5BoundIPKNS_4TypeEEENS2_5ErrorIS6_EENS_8FreeTypeENS_11GenericTypeENS_13PrimitiveTypeENS_13SingletonTypeENS_11BlockedTypeENS_20PendingExpansionTypeENS_12FunctionTypeENS_9TableTypeENS_13MetatableTypeENS_9ClassTypeENS_7AnyTypeES1_NS_16IntersectionTypeENS_8LazyTypeENS_11UnknownTypeENS_9NeverTypeENS_12NegationTypeENS_12NoRefineTypeENS_24TypeFunctionInstanceTypeEEEEPKT_PKNS_7VariantIJDpT0_EEE.exit.sink.split.i: ; preds = %.thread, %6
  %.sink8.i = phi ptr [ %9, %6 ], [ %spec.select, %.thread ]
  %13 = load i32, ptr %.sink8.i, align 8, !tbaa !84
  %14 = icmp ne i32 %13, 13
  br label %_ZN4Luau3getINS_9ClassTypeEEEPKT_PKNS_4TypeE.exit

_ZN4Luau3getINS_9ClassTypeEEEPKT_PKNS_4TypeE.exit: ; preds = %_ZN4Luau6get_ifINS_9UnionTypeEJNS_9Unifiable5BoundIPKNS_4TypeEEENS2_5ErrorIS6_EENS_8FreeTypeENS_11GenericTypeENS_13PrimitiveTypeENS_13SingletonTypeENS_11BlockedTypeENS_20PendingExpansionTypeENS_12FunctionTypeENS_9TableTypeENS_13MetatableTypeENS_9ClassTypeENS_7AnyTypeES1_NS_16IntersectionTypeENS_8LazyTypeENS_11UnknownTypeENS_9NeverTypeENS_12NegationTypeENS_12NoRefineTypeENS_24TypeFunctionInstanceTypeEEEEPKT_PKNS_7VariantIJDpT0_EEE.exit.sink.split.i, %6, %3
  %.0 = phi i1 [ true, %3 ], [ %14, %_ZN4Luau6get_ifINS_9UnionTypeEJNS_9Unifiable5BoundIPKNS_4TypeEEENS2_5ErrorIS6_EENS_8FreeTypeENS_11GenericTypeENS_13PrimitiveTypeENS_13SingletonTypeENS_11BlockedTypeENS_20PendingExpansionTypeENS_12FunctionTypeENS_9TableTypeENS_13MetatableTypeENS_9ClassTypeENS_7AnyTypeES1_NS_16IntersectionTypeENS_8LazyTypeENS_11UnknownTypeENS_9NeverTypeENS_12NegationTypeENS_12NoRefineTypeENS_24TypeFunctionInstanceTypeEEEEPKT_PKNS_7VariantIJDpT0_EEE.exit.sink.split.i ], [ true, %6 ]
  ret i1 %.0
}